; Function Attrs: mustprogress nounwind uwtable
define internal fastcc noundef ptr @_ZN12_GLOBAL__N_117ScalarExprEmitter23VisitCXXBoolLiteralExprEPKN5clang18CXXBoolLiteralExprE(ptr nonnull %.0.val, ptr noundef readonly captures(none) %0) unnamed_addr #0 align 2 {
  %2 = getelementptr inbounds nuw i8, ptr %0, i64 8
  %.sroa.0.0.copyload.i = load i64, ptr %2, align 8
  %3 = tail call noundef ptr @_ZN5clang7CodeGen15CodeGenFunction11ConvertTypeENS_8QualTypeE(ptr noundef nonnull align 8 dereferenceable(6488) %.0.val, i64 %.sroa.0.0.copyload.i) #19
  %4 = load i32, ptr %0, align 8
  %5 = lshr i32 %4, 18
  %.lobit = and i32 %5, 1
  %6 = zext nneg i32 %.lobit to i64
  %7 = tail call noundef ptr @_ZN4llvm11ConstantInt3getEPNS_4TypeEmb(ptr noundef %3, i64 noundef %6, i1 noundef zeroext false) #19
  ret ptr %7
}